target datalayout = "e-m:e-p270:32:32-p271:32:32-p272:64:64-i64:64-i128:128-f80:128-n8:16:32:64-S128"
target triple = "x86_64-pc-linux-gnu"

%struct.onas_context = type <{ ptr, ptr, i32, i32, i32, i32, i64, i8, i8, i8, i64, i64, i32, i32, i32, i32, i64, i32 }>

; Function Attrs: nounwind uwtable
define dso_local void @onas_context_cleanup(ptr noundef %0) #0 {
  %2 = alloca ptr, align 8
  store ptr %0, ptr %2, align 8, !tbaa !11
  %3 = load ptr, ptr %2, align 8, !tbaa !11
  %4 = getelementptr inbounds nuw %struct.onas_context, ptr %3, i32 0, i32 5
  %5 = load i32, ptr %4, align 1, !tbaa !30
  %6 = call i32 @close(i32 noundef %5)
  %7 = load ptr, ptr %2, align 8, !tbaa !11
  %8 = getelementptr inbounds nuw %struct.onas_context, ptr %7, i32 0, i32 0
  %9 = load ptr, ptr %8, align 1, !tbaa !15
  call void @optfree(ptr noundef %9)
  %10 = load ptr, ptr %2, align 8, !tbaa !11
  %11 = getelementptr inbounds nuw %struct.onas_context, ptr %10, i32 0, i32 1
  %12 = load ptr, ptr %11, align 1, !tbaa !26
  call void @optfree(ptr noundef %12)
  %13 = load ptr, ptr %2, align 8, !tbaa !11
  %14 = getelementptr inbounds nuw %struct.onas_context, ptr %13, i32 0, i32 0
  store ptr null, ptr %14, align 1, !tbaa !15
  %15 = load ptr, ptr %2, align 8, !tbaa !11
  %16 = getelementptr inbounds nuw %struct.onas_context, ptr %15, i32 0, i32 1
  store ptr null, ptr %16, align 1, !tbaa !26
  %17 = load ptr, ptr %2, align 8, !tbaa !11
  call void @free(ptr noundef %17) #9
  ret void
}

; Function Attrs: nounwind uwtable
define dso_local void @onas_cleanup(ptr noundef %0) #0 {
  %2 = alloca ptr, align 8
  store ptr %0, ptr %2, align 8, !tbaa !11
  %3 = load ptr, ptr %2, align 8, !tbaa !11
  call void @onas_context_cleanup(ptr noundef %3)
  call void @logg_close()
  ret void
}