; Function Attrs: nounwind uwtable
define dso_local void @onas_cleanup(ptr noundef captures(none) %0) local_unnamed_addr #0 {
  %2 = getelementptr inbounds nuw i8, ptr %0, i64 28
  %3 = load i32, ptr %2, align 1, !tbaa !25
  %4 = tail call i32 @close(i32 noundef %3) #12
  %5 = load ptr, ptr %0, align 1, !tbaa !9
  tail call void @optfree(ptr noundef %5) #12
  %6 = getelementptr inbounds nuw i8, ptr %0, i64 8
  %7 = load ptr, ptr %6, align 1, !tbaa !23
  tail call void @optfree(ptr noundef %7) #12
  tail call void @free(ptr noundef %0) #12
  tail call void @logg_close() #12
  ret void
}